target datalayout = "e-m:e-p270:32:32-p271:32:32-p272:64:64-i64:64-i128:128-f80:128-n8:16:32:64-S128"
target triple = "x86_64-pc-linux-gnu"

; Function Attrs: inlinehint nounwind uwtable
define internal i32 @no_rnd_avg32(i32 noundef %0, i32 noundef %1) #8 {
  %3 = alloca i32, align 4
  %4 = alloca i32, align 4
  store i32 %0, ptr %3, align 4, !tbaa !13
  store i32 %1, ptr %4, align 4, !tbaa !13
  %5 = load i32, ptr %3, align 4, !tbaa !13
  %6 = load i32, ptr %4, align 4, !tbaa !13
  %7 = and i32 %5, %6
  %8 = zext i32 %7 to i64
  %9 = load i32, ptr %3, align 4, !tbaa !13
  %10 = load i32, ptr %4, align 4, !tbaa !13
  %11 = xor i32 %9, %10
  %12 = zext i32 %11 to i64
  %13 = and i64 %12, -16843010
  %14 = lshr i64 %13, 1
  %15 = add i64 %8, %14
  %16 = trunc i64 %15 to i32
  ret i32 %16
}

; Function Attrs: nounwind uwtable
define internal void @put_no_rnd_pixels_l2(ptr noundef %0, ptr noundef %1, ptr noundef %2, i64 noundef %3, i32 noundef %4) #0 {
  %6 = alloca ptr, align 8
  %7 = alloca ptr, align 8
  %8 = alloca ptr, align 8
  %9 = alloca i64, align 8
  %10 = alloca i32, align 4
  %11 = alloca i32, align 4
  %12 = alloca i32, align 4
  %13 = alloca i32, align 4
  store ptr %0, ptr %6, align 8, !tbaa !4
  store ptr %1, ptr %7, align 8, !tbaa !4
  store ptr %2, ptr %8, align 8, !tbaa !4
  store i64 %3, ptr %9, align 8, !tbaa !9
  store i32 %4, ptr %10, align 4, !tbaa !13
  call void @llvm.lifetime.start.p0(i64 4, ptr %11) #9
  store i32 0, ptr %11, align 4, !tbaa !13
  br label %14

14:                                               ; preds = %68, %5
  %15 = load i32, ptr %11, align 4, !tbaa !13
  %16 = load i32, ptr %10, align 4, !tbaa !13
  %17 = icmp slt i32 %15, %16
  br i1 %17, label %18, label %71

18:                                               ; preds = %14
  call void @llvm.lifetime.start.p0(i64 4, ptr %12) #9
  call void @llvm.lifetime.start.p0(i64 4, ptr %13) #9
  %19 = load ptr, ptr %7, align 8, !tbaa !4
  %20 = load i32, ptr %11, align 4, !tbaa !13
  %21 = sext i32 %20 to i64
  %22 = load i64, ptr %9, align 8, !tbaa !9
  %23 = mul nsw i64 %21, %22
  %24 = getelementptr inbounds i8, ptr %19, i64 %23
  %25 = load i32, ptr %24, align 1, !tbaa !19
  store i32 %25, ptr %12, align 4, !tbaa !13
  %26 = load ptr, ptr %8, align 8, !tbaa !4
  %27 = load i32, ptr %11, align 4, !tbaa !13
  %28 = sext i32 %27 to i64
  %29 = load i64, ptr %9, align 8, !tbaa !9
  %30 = mul nsw i64 %28, %29
  %31 = getelementptr inbounds i8, ptr %26, i64 %30
  %32 = load i32, ptr %31, align 1, !tbaa !19
  store i32 %32, ptr %13, align 4, !tbaa !13
  %33 = load i32, ptr %12, align 4, !tbaa !13
  %34 = load i32, ptr %13, align 4, !tbaa !13
  %35 = call i32 @no_rnd_avg32(i32 noundef %33, i32 noundef %34)
  %36 = load ptr, ptr %6, align 8, !tbaa !4
  %37 = load i32, ptr %11, align 4, !tbaa !13
  %38 = sext i32 %37 to i64
  %39 = load i64, ptr %9, align 8, !tbaa !9
  %40 = mul nsw i64 %38, %39
  %41 = getelementptr inbounds i8, ptr %36, i64 %40
  store i32 %35, ptr %41, align 4, !tbaa !19
  %42 = load ptr, ptr %7, align 8, !tbaa !4
  %43 = load i32, ptr %11, align 4, !tbaa !13
  %44 = sext i32 %43 to i64
  %45 = load i64, ptr %9, align 8, !tbaa !9
  %46 = mul nsw i64 %44, %45
  %47 = add nsw i64 %46, 4
  %48 = getelementptr inbounds i8, ptr %42, i64 %47
  %49 = load i32, ptr %48, align 1, !tbaa !19
  store i32 %49, ptr %12, align 4, !tbaa !13
  %50 = load ptr, ptr %8, align 8, !tbaa !4
  %51 = load i32, ptr %11, align 4, !tbaa !13
  %52 = sext i32 %51 to i64
  %53 = load i64, ptr %9, align 8, !tbaa !9
  %54 = mul nsw i64 %52, %53
  %55 = add nsw i64 %54, 4
  %56 = getelementptr inbounds i8, ptr %50, i64 %55
  %57 = load i32, ptr %56, align 1, !tbaa !19
  store i32 %57, ptr %13, align 4, !tbaa !13
  %58 = load i32, ptr %12, align 4, !tbaa !13
  %59 = load i32, ptr %13, align 4, !tbaa !13
  %60 = call i32 @no_rnd_avg32(i32 noundef %58, i32 noundef %59)
  %61 = load ptr, ptr %6, align 8, !tbaa !4
  %62 = load i32, ptr %11, align 4, !tbaa !13
  %63 = sext i32 %62 to i64
  %64 = load i64, ptr %9, align 8, !tbaa !9
  %65 = mul nsw i64 %63, %64
  %66 = add nsw i64 %65, 4
  %67 = getelementptr inbounds i8, ptr %61, i64 %66
  store i32 %60, ptr %67, align 4, !tbaa !19
  call void @llvm.lifetime.end.p0(i64 4, ptr %13) #9
  call void @llvm.lifetime.end.p0(i64 4, ptr %12) #9
  br label %68

68:                                               ; preds = %18
  %69 = load i32, ptr %11, align 4, !tbaa !13
  %70 = add nsw i32 %69, 1
  store i32 %70, ptr %11, align 4, !tbaa !13
  br label %14, !llvm.loop !36

71:                                               ; preds = %14
  call void @llvm.lifetime.end.p0(i64 4, ptr %11) #9
  ret void
}