; Function Attrs: nofree norecurse nosync nounwind memory(argmem: readwrite) uwtable
define internal void @put_no_rnd_pixels_l2(ptr noundef writeonly captures(none) %0, ptr noundef readonly captures(none) %1, ptr noundef readonly captures(none) %2, i64 noundef %3, i32 noundef %4) #0 {
  %6 = icmp sgt i32 %4, 0
  br i1 %6, label %.lr.ph.preheader, label %._crit_edge

.lr.ph.preheader:                                 ; preds = %5
  %wide.trip.count = zext nneg i32 %4 to i64
  br label %.lr.ph

.lr.ph:                                           ; preds = %.lr.ph.preheader, %.lr.ph
  %indvars.iv = phi i64 [ 0, %.lr.ph.preheader ], [ %indvars.iv.next, %.lr.ph ]
  %7 = mul nsw i64 %3, %indvars.iv
  %8 = getelementptr inbounds i8, ptr %1, i64 %7
  %9 = load i32, ptr %8, align 1, !tbaa !10
  %10 = getelementptr inbounds i8, ptr %2, i64 %7
  %11 = load i32, ptr %10, align 1, !tbaa !10
  %12 = and i32 %11, %9
  %13 = xor i32 %11, %9
  %14 = lshr i32 %13, 1
  %15 = and i32 %14, 2139062143
  %16 = add i32 %15, %12
  %17 = getelementptr inbounds i8, ptr %0, i64 %7
  store i32 %16, ptr %17, align 4, !tbaa !10
  %18 = add nsw i64 %7, 4
  %19 = getelementptr inbounds i8, ptr %1, i64 %18
  %20 = load i32, ptr %19, align 1, !tbaa !10
  %21 = getelementptr inbounds i8, ptr %2, i64 %18
  %22 = load i32, ptr %21, align 1, !tbaa !10
  %23 = and i32 %22, %20
  %24 = xor i32 %22, %20
  %25 = lshr i32 %24, 1
  %26 = and i32 %25, 2139062143
  %27 = add i32 %26, %23
  %28 = getelementptr inbounds i8, ptr %0, i64 %18
  store i32 %27, ptr %28, align 4, !tbaa !10
  %indvars.iv.next = add nuw nsw i64 %indvars.iv, 1
  %exitcond.not = icmp eq i64 %indvars.iv.next, %wide.trip.count
  br i1 %exitcond.not, label %._crit_edge, label %.lr.ph, !llvm.loop !26

._crit_edge:                                      ; preds = %.lr.ph, %5
  ret void
}